; Function Attrs: nounwind uwtable
define zeroext range(i8 0, 2) i8 @l_Std_Time_instDecidableEqPlainDate(ptr noundef readonly captures(none) %0, ptr noundef readonly captures(none) %1) local_unnamed_addr #0 {
  %3 = getelementptr inbounds nuw i8, ptr %0, i64 8
  %4 = load ptr, ptr %3, align 8, !tbaa !4
  %5 = getelementptr inbounds nuw i8, ptr %0, i64 16
  %6 = load ptr, ptr %5, align 8, !tbaa !4
  %7 = getelementptr inbounds nuw i8, ptr %0, i64 24
  %8 = load ptr, ptr %7, align 8, !tbaa !4
  %9 = getelementptr inbounds nuw i8, ptr %1, i64 8
  %10 = load ptr, ptr %9, align 8, !tbaa !4
  %11 = getelementptr inbounds nuw i8, ptr %1, i64 16
  %12 = load ptr, ptr %11, align 8, !tbaa !4
  %13 = getelementptr inbounds nuw i8, ptr %1, i64 24
  %14 = load ptr, ptr %13, align 8, !tbaa !4
  %15 = ptrtoint ptr %4 to i64
  %16 = ptrtoint ptr %10 to i64
  %17 = and i64 %15, 1
  %18 = and i64 %17, %16
  %or.cond.not.i.i.i = icmp eq i64 %18, 0
  br i1 %or.cond.not.i.i.i, label %lean_int_dec_eq.exit.i, label %19, !prof !15

19:                                               ; preds = %2
  %20 = icmp eq ptr %4, %10
  br i1 %20, label %22, label %l___private_Std_Time_Date_PlainDate_0__Std_Time_decEqPlainDate____x40_Std_Time_Date_PlainDate___hyg_428_.exit

lean_int_dec_eq.exit.i:                           ; preds = %2
  %21 = tail call zeroext i1 @lean_int_big_eq(ptr noundef %4, ptr noundef %10) #5
  br i1 %21, label %22, label %l___private_Std_Time_Date_PlainDate_0__Std_Time_decEqPlainDate____x40_Std_Time_Date_PlainDate___hyg_428_.exit

22:                                               ; preds = %lean_int_dec_eq.exit.i, %19
  %23 = ptrtoint ptr %6 to i64
  %24 = ptrtoint ptr %12 to i64
  %25 = and i64 %23, 1
  %26 = and i64 %25, %24
  %or.cond.not.i.i17.i = icmp eq i64 %26, 0
  br i1 %or.cond.not.i.i17.i, label %lean_int_dec_eq.exit20.i, label %27, !prof !15

27:                                               ; preds = %22
  %28 = icmp eq ptr %6, %12
  br i1 %28, label %30, label %l___private_Std_Time_Date_PlainDate_0__Std_Time_decEqPlainDate____x40_Std_Time_Date_PlainDate___hyg_428_.exit

lean_int_dec_eq.exit20.i:                         ; preds = %22
  %29 = tail call zeroext i1 @lean_int_big_eq(ptr noundef %6, ptr noundef %12) #5
  br i1 %29, label %30, label %l___private_Std_Time_Date_PlainDate_0__Std_Time_decEqPlainDate____x40_Std_Time_Date_PlainDate___hyg_428_.exit

30:                                               ; preds = %lean_int_dec_eq.exit20.i, %27
  %31 = ptrtoint ptr %8 to i64
  %32 = ptrtoint ptr %14 to i64
  %33 = and i64 %31, 1
  %34 = and i64 %33, %32
  %or.cond.not.i.i21.i = icmp eq i64 %34, 0
  br i1 %or.cond.not.i.i21.i, label %.critedge.i.i23.i, label %35, !prof !15

35:                                               ; preds = %30
  %36 = icmp eq ptr %8, %14
  br label %lean_int_dec_eq.exit24.i

.critedge.i.i23.i:                                ; preds = %30
  %37 = tail call zeroext i1 @lean_int_big_eq(ptr noundef %8, ptr noundef %14) #5
  br label %lean_int_dec_eq.exit24.i

lean_int_dec_eq.exit24.i:                         ; preds = %.critedge.i.i23.i, %35
  %.0.i.i22.i = phi i1 [ %36, %35 ], [ %37, %.critedge.i.i23.i ]
  %38 = zext i1 %.0.i.i22.i to i8
  br label %l___private_Std_Time_Date_PlainDate_0__Std_Time_decEqPlainDate____x40_Std_Time_Date_PlainDate___hyg_428_.exit

l___private_Std_Time_Date_PlainDate_0__Std_Time_decEqPlainDate____x40_Std_Time_Date_PlainDate___hyg_428_.exit: ; preds = %19, %lean_int_dec_eq.exit.i, %27, %lean_int_dec_eq.exit20.i, %lean_int_dec_eq.exit24.i
  %.0.i = phi i8 [ 0, %lean_int_dec_eq.exit.i ], [ %38, %lean_int_dec_eq.exit24.i ], [ 0, %lean_int_dec_eq.exit20.i ], [ 0, %19 ], [ 0, %27 ]
  ret i8 %.0.i
}